target datalayout = "e-m:e-p270:32:32-p271:32:32-p272:64:64-i64:64-i128:128-f80:128-n8:16:32:64-S128"
target triple = "x86_64-pc-linux-gnu"

%class.outputStream = type { ptr, i32, i8, i32, i64, %class.TimeStamp, ptr, i64 }
%class.TimeStamp = type { i64 }

@.str.4 = private unnamed_addr constant [9 x i8] c"        \00", align 1
@.str.5 = private unnamed_addr constant [2 x i8] c"\0A\00", align 1

; Function Attrs: mustprogress nounwind uwtable
define hidden void @_ZN12outputStream2spEi(ptr noundef nonnull align 8 dereferenceable(56) %0, i32 noundef %1) #1 align 2 {
  %3 = alloca ptr, align 8
  %4 = alloca i32, align 4
  %5 = alloca i32, align 4
  store ptr %0, ptr %3, align 8
  store i32 %1, ptr %4, align 4
  %6 = load ptr, ptr %3, align 8
  %7 = load i32, ptr %4, align 4
  %8 = icmp slt i32 %7, 0
  br i1 %8, label %9, label %10

9:                                                ; preds = %2
  br label %30

10:                                               ; preds = %2
  br label %11

11:                                               ; preds = %20, %10
  %12 = load i32, ptr %4, align 4
  %13 = icmp sgt i32 %12, 0
  br i1 %13, label %14, label %30

14:                                               ; preds = %11
  %15 = load i32, ptr %4, align 4
  %16 = icmp sgt i32 %15, 8
  br i1 %16, label %17, label %18

17:                                               ; preds = %14
  br label %20

18:                                               ; preds = %14
  %19 = load i32, ptr %4, align 4
  br label %20

20:                                               ; preds = %18, %17
  %21 = phi i32 [ 8, %17 ], [ %19, %18 ]
  store i32 %21, ptr %5, align 4
  %22 = load i32, ptr %5, align 4
  %23 = sext i32 %22 to i64
  %24 = load ptr, ptr %6, align 8
  %25 = getelementptr inbounds ptr, ptr %24, i64 1
  %26 = load ptr, ptr %25, align 8
  call void %26(ptr noundef nonnull align 8 dereferenceable(56) %6, ptr noundef @.str.4, i64 noundef %23)
  %27 = load i32, ptr %5, align 4
  %28 = load i32, ptr %4, align 4
  %29 = sub nsw i32 %28, %27
  store i32 %29, ptr %4, align 4
  br label %11, !llvm.loop !8

30:                                               ; preds = %11, %9
  ret void
}

; Function Attrs: mustprogress nounwind uwtable
define hidden noundef nonnull align 8 dereferenceable(56) ptr @_ZN12outputStream6indentEv(ptr noundef nonnull align 8 dereferenceable(56) %0) #1 align 2 {
  %2 = alloca ptr, align 8
  store ptr %0, ptr %2, align 8
  %3 = load ptr, ptr %2, align 8
  %4 = getelementptr inbounds %class.outputStream, ptr %3, i32 0, i32 1
  %5 = load i32, ptr %4, align 8
  %6 = getelementptr inbounds %class.outputStream, ptr %3, i32 0, i32 3
  %7 = load i32, ptr %6, align 8
  %8 = sub nsw i32 %5, %7
  call void @_ZN12outputStream2spEi(ptr noundef nonnull align 8 dereferenceable(56) %3, i32 noundef %8)
  ret ptr %3
}

; Function Attrs: mustprogress nounwind uwtable
define hidden void @_ZN12outputStream2crEv(ptr noundef nonnull align 8 dereferenceable(56) %0) #1 align 2 {
  %2 = alloca ptr, align 8
  store ptr %0, ptr %2, align 8
  %3 = load ptr, ptr %2, align 8
  %4 = load ptr, ptr %3, align 8
  %5 = getelementptr inbounds ptr, ptr %4, i64 1
  %6 = load ptr, ptr %5, align 8
  call void %6(ptr noundef nonnull align 8 dereferenceable(56) %3, ptr noundef @.str.5, i64 noundef 1)
  ret void
}

; Function Attrs: mustprogress nounwind uwtable
define hidden void @_ZN12outputStream9cr_indentEv(ptr noundef nonnull align 8 dereferenceable(56) %0) #1 align 2 {
  %2 = alloca ptr, align 8
  store ptr %0, ptr %2, align 8
  %3 = load ptr, ptr %2, align 8
  call void @_ZN12outputStream2crEv(ptr noundef nonnull align 8 dereferenceable(56) %3)
  %4 = call noundef nonnull align 8 dereferenceable(56) ptr @_ZN12outputStream6indentEv(ptr noundef nonnull align 8 dereferenceable(56) %3)
  ret void
}