; Function Attrs: mustprogress nounwind uwtable
define hidden void @_ZN12outputStream9cr_indentEv(ptr noundef nonnull align 8 dereferenceable(56) %0) local_unnamed_addr #0 align 2 {
  %2 = load ptr, ptr %0, align 8
  %3 = getelementptr inbounds i8, ptr %2, i64 8
  %4 = load ptr, ptr %3, align 8
  tail call void %4(ptr noundef nonnull align 8 dereferenceable(56) %0, ptr noundef nonnull @.str.5, i64 noundef 1) #21
  %5 = getelementptr inbounds i8, ptr %0, i64 8
  %6 = load i32, ptr %5, align 8
  %7 = getelementptr inbounds i8, ptr %0, i64 16
  %8 = load i32, ptr %7, align 8
  %9 = sub nsw i32 %6, %8
  %10 = icmp sgt i32 %9, 0
  br i1 %10, label %.preheader.i.i, label %_ZN12outputStream6indentEv.exit

.preheader.i.i:                                   ; preds = %1, %.preheader.i.i
  %.0.i.i = phi i32 [ %16, %.preheader.i.i ], [ %9, %1 ]
  %11 = tail call i32 @llvm.umin.i32(i32 %.0.i.i, i32 8)
  %12 = zext nneg i32 %11 to i64
  %13 = load ptr, ptr %0, align 8
  %14 = getelementptr inbounds i8, ptr %13, i64 8
  %15 = load ptr, ptr %14, align 8
  tail call void %15(ptr noundef nonnull align 8 dereferenceable(56) %0, ptr noundef nonnull @.str.4, i64 noundef %12) #21
  %16 = sub nsw i32 %.0.i.i, %11
  %.old1.i.i = icmp sgt i32 %16, 0
  br i1 %.old1.i.i, label %.preheader.i.i, label %_ZN12outputStream6indentEv.exit

_ZN12outputStream6indentEv.exit:                  ; preds = %.preheader.i.i, %1
  ret void
}